; Function Attrs: mustprogress uwtable
define internal fastcc noundef zeroext i1 @_ZN4YAML5Utils12_GLOBAL__N_114WriteAliasNameERNS_15ostream_wrapperEPKcm(ptr noundef nonnull align 8 dereferenceable(57) %0, ptr noundef readonly captures(address) %1, i64 noundef %2) unnamed_addr #0 {
  %4 = getelementptr inbounds nuw i8, ptr %1, i64 %2
  %.not41 = icmp samesign eq i64 %2, 0
  br i1 %.not41, label %.critedge, label %.lr.ph

.lr.ph:                                           ; preds = %3, %_ZN4YAML5Utils12_GLOBAL__N_112IsAnchorCharEi.exit.thread
  %.042 = phi ptr [ %.31424, %_ZN4YAML5Utils12_GLOBAL__N_112IsAnchorCharEi.exit.thread ], [ %1, %3 ]
  %5 = load i8, ptr %.042, align 1, !tbaa !12
  %6 = lshr i8 %5, 4
  switch i8 %6, label %.thread34 [
    i8 0, label %10
    i8 1, label %10
    i8 2, label %10
    i8 3, label %10
    i8 4, label %10
    i8 5, label %10
    i8 6, label %10
    i8 7, label %10
    i8 12, label %13
    i8 13, label %13
    i8 14, label %7
    i8 15, label %8
  ]

7:                                                ; preds = %.lr.ph
  br label %13

8:                                                ; preds = %.lr.ph
  br label %13

.thread34:                                        ; preds = %.lr.ph
  %9 = getelementptr inbounds nuw i8, ptr %.042, i64 1
  br label %_ZN4YAML5Utils12_GLOBAL__N_112IsAnchorCharEi.exit

10:                                               ; preds = %.lr.ph, %.lr.ph, %.lr.ph, %.lr.ph, %.lr.ph, %.lr.ph, %.lr.ph, %.lr.ph
  %11 = getelementptr inbounds nuw i8, ptr %.042, i64 1
  %12 = sext i8 %5 to i32
  br label %_ZN4YAML5Utils12_GLOBAL__N_126GetNextCodePointAndAdvanceERiRPKcS4_.exit.thread

13:                                               ; preds = %8, %7, %.lr.ph, %.lr.ph
  %.0.i.ph.ph.i = phi i32 [ 4, %8 ], [ 3, %7 ], [ 2, %.lr.ph ], [ 2, %.lr.ph ]
  %14 = zext i8 %5 to i32
  %15 = xor i32 %.0.i.ph.ph.i, 7
  %16 = shl nuw nsw i32 255, %15
  %17 = xor i32 %16, -1
  %18 = and i32 %17, %14
  %scevgep = getelementptr i8, ptr %.042, i64 2
  %19 = zext nneg i32 %.0.i.ph.ph.i to i64
  %20 = getelementptr i8, ptr %scevgep, i64 %19
  %scevgep68 = getelementptr i8, ptr %20, i64 -2
  br label %21

21:                                               ; preds = %26, %13
  %.042.pn = phi ptr [ %.042, %13 ], [ %.18, %26 ]
  %.057.in.i = phi i32 [ %.0.i.ph.ph.i, %13 ], [ %.057.i, %26 ]
  %storemerge5255.i = phi i32 [ %18, %13 ], [ %30, %26 ]
  %.18 = getelementptr inbounds nuw i8, ptr %.042.pn, i64 1
  %.057.i = add nsw i32 %.057.in.i, -1
  %22 = icmp eq ptr %.18, %4
  br i1 %22, label %_ZN4YAML5Utils12_GLOBAL__N_112IsAnchorCharEi.exit, label %23

23:                                               ; preds = %21
  %24 = load i8, ptr %.18, align 1, !tbaa !12
  %25 = icmp slt i8 %24, -64
  br i1 %25, label %26, label %_ZN4YAML5Utils12_GLOBAL__N_112IsAnchorCharEi.exit

26:                                               ; preds = %23
  %27 = shl i32 %storemerge5255.i, 6
  %28 = and i8 %24, 63
  %29 = zext nneg i8 %28 to i32
  %30 = or disjoint i32 %27, %29
  %31 = icmp ugt i32 %.057.in.i, 2
  br i1 %31, label %21, label %32, !llvm.loop !18

32:                                               ; preds = %26
  %33 = icmp sgt i32 %30, 1114111
  %34 = and i32 %storemerge5255.i, 67108832
  %or.cond.i = icmp eq i32 %34, 864
  %or.cond59.i = select i1 %33, i1 true, i1 %or.cond.i
  %35 = and i32 %30, 65534
  %36 = icmp eq i32 %35, 65534
  %or.cond61.i = or i1 %or.cond59.i, %36
  %37 = add i32 %30, -64976
  %or.cond41.i = icmp ult i32 %37, 32
  %or.cond62.i = or i1 %or.cond41.i, %or.cond61.i
  br i1 %or.cond62.i, label %_ZN4YAML5Utils12_GLOBAL__N_112IsAnchorCharEi.exit, label %_ZN4YAML5Utils12_GLOBAL__N_126GetNextCodePointAndAdvanceERiRPKcS4_.exit.thread

_ZN4YAML5Utils12_GLOBAL__N_126GetNextCodePointAndAdvanceERiRPKcS4_.exit.thread: ; preds = %32, %10
  %.314 = phi ptr [ %11, %10 ], [ %scevgep68, %32 ]
  %.11013 = phi i32 [ %12, %10 ], [ %30, %32 ]
  switch i32 %.11013, label %38 [
    i32 44, label %.critedge
    i32 91, label %.critedge
    i32 93, label %.critedge
    i32 123, label %.critedge
    i32 125, label %.critedge
    i32 32, label %.critedge
    i32 9, label %.critedge
    i32 65279, label %.critedge
    i32 10, label %.critedge
    i32 13, label %.critedge
    i32 133, label %_ZN4YAML5Utils12_GLOBAL__N_112IsAnchorCharEi.exit.thread
  ]

38:                                               ; preds = %_ZN4YAML5Utils12_GLOBAL__N_126GetNextCodePointAndAdvanceERiRPKcS4_.exit.thread
  %39 = icmp slt i32 %.11013, 32
  br i1 %39, label %.critedge, label %40

40:                                               ; preds = %38
  %41 = icmp samesign ult i32 %.11013, 126
  br i1 %41, label %_ZN4YAML5Utils12_GLOBAL__N_112IsAnchorCharEi.exit.thread, label %_ZN4YAML5Utils12_GLOBAL__N_112IsAnchorCharEi.exit

_ZN4YAML5Utils12_GLOBAL__N_112IsAnchorCharEi.exit: ; preds = %23, %21, %32, %.thread34, %40
  %.11013273238 = phi i32 [ 65533, %.thread34 ], [ %.11013, %40 ], [ 65533, %32 ], [ 65533, %21 ], [ 65533, %23 ]
  %.314263337 = phi ptr [ %9, %.thread34 ], [ %.314, %40 ], [ %scevgep68, %32 ], [ %.18, %23 ], [ %4, %21 ]
  %42 = icmp samesign ugt i32 %.11013273238, 159
  %43 = and i32 %.11013273238, 2147481600
  %or.cond.i6 = icmp ne i32 %43, 55296
  %or.cond14.not19.i = and i1 %42, %or.cond.i6
  %44 = and i32 %.11013273238, 65534
  %45 = icmp ne i32 %44, 65534
  %or.cond16.not18.i = and i1 %45, %or.cond14.not19.i
  %46 = add nsw i32 %.11013273238, -65008
  %or.cond3.i = icmp ult i32 %46, -32
  %or.cond17.not.i = select i1 %or.cond16.not18.i, i1 %or.cond3.i, i1 false
  br i1 %or.cond17.not.i, label %_ZN4YAML5Utils12_GLOBAL__N_112IsAnchorCharEi.exit.thread, label %.critedge

_ZN4YAML5Utils12_GLOBAL__N_112IsAnchorCharEi.exit.thread: ; preds = %_ZN4YAML5Utils12_GLOBAL__N_126GetNextCodePointAndAdvanceERiRPKcS4_.exit.thread, %40, %_ZN4YAML5Utils12_GLOBAL__N_112IsAnchorCharEi.exit
  %.1101328 = phi i32 [ %.11013273238, %_ZN4YAML5Utils12_GLOBAL__N_112IsAnchorCharEi.exit ], [ %.11013, %40 ], [ %.11013, %_ZN4YAML5Utils12_GLOBAL__N_126GetNextCodePointAndAdvanceERiRPKcS4_.exit.thread ]
  %.31424 = phi ptr [ %.314263337, %_ZN4YAML5Utils12_GLOBAL__N_112IsAnchorCharEi.exit ], [ %.314, %40 ], [ %.314, %_ZN4YAML5Utils12_GLOBAL__N_126GetNextCodePointAndAdvanceERiRPKcS4_.exit.thread ]
  tail call fastcc void @_ZN4YAML5Utils12_GLOBAL__N_114WriteCodePointERNS_15ostream_wrapperEi(ptr noundef nonnull align 8 dereferenceable(57) %0, i32 noundef %.1101328)
  %.not = icmp eq ptr %.31424, %4
  br i1 %.not, label %.critedge, label %.lr.ph, !llvm.loop !35

.critedge:                                        ; preds = %_ZN4YAML5Utils12_GLOBAL__N_112IsAnchorCharEi.exit, %_ZN4YAML5Utils12_GLOBAL__N_112IsAnchorCharEi.exit.thread, %_ZN4YAML5Utils12_GLOBAL__N_126GetNextCodePointAndAdvanceERiRPKcS4_.exit.thread, %_ZN4YAML5Utils12_GLOBAL__N_126GetNextCodePointAndAdvanceERiRPKcS4_.exit.thread, %_ZN4YAML5Utils12_GLOBAL__N_126GetNextCodePointAndAdvanceERiRPKcS4_.exit.thread, %_ZN4YAML5Utils12_GLOBAL__N_126GetNextCodePointAndAdvanceERiRPKcS4_.exit.thread, %_ZN4YAML5Utils12_GLOBAL__N_126GetNextCodePointAndAdvanceERiRPKcS4_.exit.thread, %_ZN4YAML5Utils12_GLOBAL__N_126GetNextCodePointAndAdvanceERiRPKcS4_.exit.thread, %_ZN4YAML5Utils12_GLOBAL__N_126GetNextCodePointAndAdvanceERiRPKcS4_.exit.thread, %_ZN4YAML5Utils12_GLOBAL__N_126GetNextCodePointAndAdvanceERiRPKcS4_.exit.thread, %_ZN4YAML5Utils12_GLOBAL__N_126GetNextCodePointAndAdvanceERiRPKcS4_.exit.thread, %_ZN4YAML5Utils12_GLOBAL__N_126GetNextCodePointAndAdvanceERiRPKcS4_.exit.thread, %38, %3
  %.not.lcssa = phi i1 [ true, %3 ], [ false, %38 ], [ false, %_ZN4YAML5Utils12_GLOBAL__N_126GetNextCodePointAndAdvanceERiRPKcS4_.exit.thread ], [ false, %_ZN4YAML5Utils12_GLOBAL__N_126GetNextCodePointAndAdvanceERiRPKcS4_.exit.thread ], [ false, %_ZN4YAML5Utils12_GLOBAL__N_126GetNextCodePointAndAdvanceERiRPKcS4_.exit.thread ], [ false, %_ZN4YAML5Utils12_GLOBAL__N_126GetNextCodePointAndAdvanceERiRPKcS4_.exit.thread ], [ false, %_ZN4YAML5Utils12_GLOBAL__N_126GetNextCodePointAndAdvanceERiRPKcS4_.exit.thread ], [ false, %_ZN4YAML5Utils12_GLOBAL__N_126GetNextCodePointAndAdvanceERiRPKcS4_.exit.thread ], [ false, %_ZN4YAML5Utils12_GLOBAL__N_126GetNextCodePointAndAdvanceERiRPKcS4_.exit.thread ], [ false, %_ZN4YAML5Utils12_GLOBAL__N_126GetNextCodePointAndAdvanceERiRPKcS4_.exit.thread ], [ false, %_ZN4YAML5Utils12_GLOBAL__N_126GetNextCodePointAndAdvanceERiRPKcS4_.exit.thread ], [ false, %_ZN4YAML5Utils12_GLOBAL__N_126GetNextCodePointAndAdvanceERiRPKcS4_.exit.thread ], [ true, %_ZN4YAML5Utils12_GLOBAL__N_112IsAnchorCharEi.exit.thread ], [ false, %_ZN4YAML5Utils12_GLOBAL__N_112IsAnchorCharEi.exit ]
  ret i1 %.not.lcssa
}